ccopy_reg
_reconstructor
p0
(cFWCore.ParameterSet.Config
Process
p1
c__builtin__
object
p2
Ntp3
Rp4
(dp5
S'MessageLogger'
p6
g0
(cFWCore.ParameterSet.Modules
Service
p7
g2
Ntp8
Rp9
(dp10
S'_isFrozen'
p11
I00
sS'suppressInfo'
p12
g0
(cFWCore.ParameterSet.Types
vstring
p13
c__builtin__
list
p14
(lp15
tp16
Rp17
(dp18
g11
I00
sS'_ParameterTypeBase__isTracked'
p19
I00
sS'_isModified'
p20
I00
sS'_nPerLine'
p21
I1
sbsS'suppressDebug'
p22
g0
(g13
g14
(lp23
tp24
Rp25
(dp26
g11
I00
sg19
I00
sg20
I00
sg21
I1
sbsS'cout'
p27
g0
(cFWCore.ParameterSet.Types
PSet
p28
g2
Ntp29
Rp30
(dp31
g11
I00
sg19
I00
sS'placeholder'
p32
g0
(cFWCore.ParameterSet.Types
bool
p33
g2
Ntp34
Rp35
(dp36
g11
I00
sg19
I00
sS'_value'
p37
I01
sg20
I00
sbsg20
I00
sS'_Parameterizable__parameterNames'
p38
(lp39
g32
asbsS'_lineNumber'
p40
I10
sS'debugModules'
p41
g0
(g13
g14
(lp42
tp43
Rp44
(dp45
g11
I00
sg19
I00
sg20
I00
sg21
I1
sbsS'_TypedParameterizable__type'
p46
g6
sS'fwkJobReports'
p47
g0
(g13
g14
(lp48
S'FrameworkJobReport'
p49
atp50
Rp51
(dp52
g11
I00
sg19
I00
sg20
I00
sg21
I1
sbsg38
(lp53
g12
aS'debugs'
p54
ag22
ag27
aS'cerr_stats'
p55
aS'warnings'
p56
aS'default'
p57
aS'statistics'
p58
aS'cerr'
p59
ag49
aS'suppressWarning'
p60
aS'errors'
p61
aS'destinations'
p62
ag41
aS'infos'
p63
aS'categories'
p64
ag47
asg58
g0
(g13
g14
(lp65
g55
atp66
Rp67
(dp68
g11
I00
sg19
I00
sg20
I00
sg21
I1
sbsS'_filename'
p69
S'/cvmfs/cms.cern.ch/slc6_amd64_gcc491/cms/cmssw/CMSSW_7_5_8/python/FWCore/ParameterSet/Modules.py'
p70
sg62
g0
(g13
g14
(lp71
g56
ag61
ag63
ag54
ag27
ag59
atp72
Rp73
(dp74
g11
I00
sg19
I00
sg20
I00
sg21
I1
sbsg54
g0
(g28
g2
Ntp75
Rp76
(dp77
g11
I00
sg19
I00
sg32
g0
(g33
g2
Ntp78
Rp79
(dp80
g11
I00
sg19
I00
sg37
I01
sg20
I00
sbsg20
I00
sg38
(lp81
g32
asbsg56
g0
(g28
g2
Ntp82
Rp83
(dp84
g11
I00
sg19
I00
sg32
g0
(g33
g2
Ntp85
Rp86
(dp87
g11
I00
sg19
I00
sg37
I01
sg20
I00
sbsg20
I00
sg38
(lp88
g32
asbsg61
g0
(g28
g2
Ntp89
Rp90
(dp91
g11
I00
sg19
I00
sg32
g0
(g33
g2
Ntp92
Rp93
(dp94
g11
I00
sg19
I00
sg37
I01
sg20
I00
sbsg20
I00
sg38
(lp95
g32
asbsg49
g0
(g28
g2
Ntp96
Rp97
(dp98
g11
I00
sg19
I00
sg20
I00
sg57
g0
(g28
g2
Ntp99
Rp100
(dp101
g11
I00
sg19
I00
sS'limit'
p102
g0
(cFWCore.ParameterSet.Types
int32
p103
g2
Ntp104
Rp105
(dp106
g11
I00
sg19
I00
sg37
I0
sg20
I00
sbsg20
I00
sg38
(lp107
g102
asbsS'FwkJob'
p108
g0
(g28
g2
Ntp109
Rp110
(dp111
g11
I00
sg19
I00
sg20
I00
sg102
g0
(g103
g2
Ntp112
Rp113
(dp114
g11
I00
sg19
I00
sg37
I10000000
sg20
I00
sbsg38
(lp115
S'optionalPSet'
p116
ag102
asg116
g0
(g33
g2
Ntp117
Rp118
(dp119
g11
I00
sg19
I00
sg37
I01
sg20
I00
sbsbsg38
(lp120
g57
ag116
ag108
asg116
g0
(g33
g2
Ntp121
Rp122
(dp123
g11
I00
sg19
I00
sg37
I01
sg20
I00
sbsbsg60
g0
(g13
g14
(lp124
tp125
Rp126
(dp127
g11
I00
sg19
I00
sg20
I00
sg21
I1
sbsg63
g0
(g28
g2
Ntp128
Rp129
(dp130
g11
I00
sg19
I00
sg20
I00
sS'Root_NoDictionary'
p131
g0
(g28
g2
Ntp132
Rp133
(dp134
g11
I00
sg19
I00
sg20
I00
sg102
g0
(g103
g2
Ntp135
Rp136
(dp137
g11
I00
sg19
I00
sg37
I0
sg20
I00
sbsg38
(lp138
g116
ag102
asg116
g0
(g33
g2
Ntp139
Rp140
(dp141
g11
I00
sg19
I00
sg37
I01
sg20
I00
sbsbsg38
(lp142
g116
ag131
ag32
asg116
g0
(g33
g2
Ntp143
Rp144
(dp145
g11
I00
sg19
I00
sg37
I01
sg20
I00
sbsg32
g0
(g33
g2
Ntp146
Rp147
(dp148
g11
I00
sg19
I00
sg37
I01
sg20
I00
sbsbsg64
g0
(g13
g14
(lp149
g108
aS'FwkReport'
p150
aS'FwkSummary'
p151
ag131
atp152
Rp153
(dp154
g11
I00
sg19
I00
sg20
I00
sg21
I1
sbsg20
I00
sg55
g0
(g28
g2
Ntp155
Rp156
(dp157
g11
I00
sg19
I00
sg20
I00
sg116
g0
(g33
g2
Ntp158
Rp159
(dp160
g11
I00
sg19
I00
sg37
I01
sg20
I00
sbsg38
(lp161
S'threshold'
p162
aS'output'
p163
ag116
asg162
g0
(cFWCore.ParameterSet.Types
string
p164
g2
Ntp165
Rp166
(dp167
g11
I00
sg19
I00
sg37
S'WARNING'
p168
sg20
I00
sbsg163
g0
(g164
g2
Ntp169
Rp170
(dp171
g11
I00
sg19
I00
sg37
g59
sg20
I00
sbsbsg57
g0
(g28
g2
Ntp172
Rp173
(dp174
g11
I00
sg19
I00
sg20
I00
sg38
(lp175
sbsg59
g0
(g28
g2
Ntp176
Rp177
(dp178
g11
I00
sg19
I00
sS'noTimeStamps'
p179
g0
(g33
g2
Ntp180
Rp181
(dp182
g11
I00
sg19
I00
sg37
I00
sg20
I00
sbsg150
g0
(g28
g2
Ntp183
Rp184
(dp185
g11
I00
sg19
I00
sg20
I01
sS'reportEvery'
p186
g0
(g103
g2
Ntp187
Rp188
(dp189
g11
I00
sg19
I00
sg37
I5000
sg20
I01
sbsg102
g0
(g103
g2
Ntp190
Rp191
(dp192
g11
I00
sg19
I00
sg37
I10000000
sg20
I00
sbsg38
(lp193
g186
ag116
ag102
asg116
g0
(g33
g2
Ntp194
Rp195
(dp196
g11
I00
sg19
I00
sg37
I01
sg20
I00
sbsbsg20
I00
sg57
g0
(g28
g2
Ntp197
Rp198
(dp199
g11
I00
sg19
I00
sg102
g0
(g103
g2
Ntp200
Rp201
(dp202
g11
I00
sg19
I00
sg37
I10000000
sg20
I00
sbsg20
I00
sg38
(lp203
g102
asbsg131
g0
(g28
g2
Ntp204
Rp205
(dp206
g11
I00
sg19
I00
sg20
I00
sg102
g0
(g103
g2
Ntp207
Rp208
(dp209
g11
I00
sg19
I00
sg37
I0
sg20
I00
sbsg38
(lp210
g116
ag102
asg116
g0
(g33
g2
Ntp211
Rp212
(dp213
g11
I00
sg19
I00
sg37
I01
sg20
I00
sbsbsS'INFO'
p214
g0
(g28
g2
Ntp215
Rp216
(dp217
g11
I00
sg19
I00
sg102
g0
(g103
g2
Ntp218
Rp219
(dp220
g11
I00
sg19
I00
sg37
I0
sg20
I00
sbsg20
I00
sg38
(lp221
g102
asbsg116
g0
(g33
g2
Ntp222
Rp223
(dp224
g11
I00
sg19
I00
sg37
I01
sg20
I00
sbsg108
g0
(g28
g2
Ntp225
Rp226
(dp227
g11
I00
sg19
I00
sg20
I00
sg102
g0
(g103
g2
Ntp228
Rp229
(dp230
g11
I00
sg19
I00
sg37
I0
sg20
I00
sbsg38
(lp231
g116
ag102
asg116
g0
(g33
g2
Ntp232
Rp233
(dp234
g11
I00
sg19
I00
sg37
I01
sg20
I00
sbsbsg151
g0
(g28
g2
Ntp235
Rp236
(dp237
g11
I00
sg19
I00
sg20
I00
sg186
g0
(g103
g2
Ntp238
Rp239
(dp240
g11
I00
sg19
I00
sg37
I1
sg20
I00
sbsg102
g0
(g103
g2
Ntp241
Rp242
(dp243
g11
I00
sg19
I00
sg37
I10000000
sg20
I00
sbsg38
(lp244
g186
ag116
ag102
asg116
g0
(g33
g2
Ntp245
Rp246
(dp247
g11
I00
sg19
I00
sg37
I01
sg20
I00
sbsbsg38
(lp248
g214
ag179
ag150
ag57
ag131
ag162
ag108
ag151
ag116
asg162
g0
(g164
g2
Ntp249
Rp250
(dp251
g11
I00
sg19
I00
sg37
g214
sg20
I00
sbsbsbsS'hltL1MinimumBiasHF1AND'
p252
g0
(cFWCore.ParameterSet.Modules
EDFilter
p253
g2
Ntp254
Rp255
(dp256
g38
(lp257
S'eventSetupPathsKey'
p258
aS'andOr'
p259
aS'HLTPaths'
p260
aS'throw'
p261
aS'TriggerResultsTag'
p262
asg11
I00
sg260
g0
(g13
g14
(lp263
S'HLT_L1MinimumBiasHF1AND_v1'
p264
atp265
Rp266
(dp267
g11
I00
sg19
I01
sg20
I01
sg21
I1
sbsg20
I01
sg40
I28
sg69
S'/gpfs22/home/janjamrk/CMSSW_7_5_8/src/TestAnalyzer_v1/TestAnalyzer_v1/python/ppRefConfigs/ppRef_v4_cfg.py'
p268
sS'_Labelable__label'
p269
g252
sg258
g0
(g164
g2
Ntp270
Rp271
(dp272
g11
I00
sg19
I01
sg37
S''
p273
sg20
I00
sbsg262
g0
(cFWCore.ParameterSet.Types
InputTag
p274
g2
Ntp275
Rp276
(dp277
g11
I00
sg19
I01
sg20
I00
sS'_InputTag__moduleLabel'
p278
S'TriggerResults'
p279
sS'_InputTag__productInstance'
p280
g273
sS'_InputTag__processName'
p281
S'HLT'
p282
sbsg261
g0
(g33
g2
Ntp283
Rp284
(dp285
g11
I00
sg19
I01
sg37
I01
sg20
I00
sbsg46
S'HLTHighLevel'
p286
sg259
g0
(g33
g2
Ntp287
Rp288
(dp289
g11
I00
sg19
I01
sg37
I01
sg20
I00
sbsbsS'_Process__sequences'
p290
(dp291
sS'CondDBSetup'
p292
g0
(g28
g2
Ntp293
Rp294
(dp295
g11
I00
sg19
I01
sg20
I00
sS'DBParameters'
p296
g0
(g28
g2
Ntp297
Rp298
(dp299
g11
I00
sg19
I01
sS'connectionRetrialPeriod'
p300
g0
(g103
g2
Ntp301
Rp302
(dp303
g11
I00
sg19
I00
sg37
I10
sg20
I00
sbsS'authenticationPath'
p304
g0
(g164
g2
Ntp305
Rp306
(dp307
g11
I00
sg19
I00
sg37
g273
sg20
I00
sbsg20
I00
sS'idleConnectionCleanupPeriod'
p308
g0
(g103
g2
Ntp309
Rp310
(dp311
g11
I00
sg19
I00
sg37
I10
sg20
I00
sbsS'messageLevel'
p312
g0
(g103
g2
Ntp313
Rp314
(dp315
g11
I00
sg19
I00
sg37
I0
sg20
I00
sbsS'enablePoolAutomaticCleanUp'
p316
g0
(g33
g2
Ntp317
Rp318
(dp319
g11
I00
sg19
I00
sg37
I00
sg20
I00
sbsS'enableConnectionSharing'
p320
g0
(g33
g2
Ntp321
Rp322
(dp323
g11
I00
sg19
I00
sg37
I01
sg20
I00
sbsS'enableReadOnlySessionOnUpdateConnection'
p324
g0
(g33
g2
Ntp325
Rp326
(dp327
g11
I00
sg19
I00
sg37
I00
sg20
I00
sbsg38
(lp328
g304
ag324
ag308
ag312
ag316
ag320
aS'connectionRetrialTimeOut'
p329
aS'connectionTimeOut'
p330
aS'authenticationSystem'
p331
ag300
asg330
g0
(g103
g2
Ntp332
Rp333
(dp334
g11
I00
sg19
I00
sg37
I60
sg20
I00
sbsg331
g0
(g103
g2
Ntp335
Rp336
(dp337
g11
I00
sg19
I00
sg37
I0
sg20
I00
sbsg329
g0
(g103
g2
Ntp338
Rp339
(dp340
g11
I00
sg19
I00
sg37
I60
sg20
I00
sbsbsg38
(lp341
g296
asg269
g292
sbsS'demo'
p342
g0
(cFWCore.ParameterSet.Modules
EDAnalyzer
p343
g2
Ntp344
Rp345
(dp346
g38
(lp347
S'ptBins'
p348
aS'trackSrc'
p349
aS'etaBins'
p350
aS'vertexZMax'
p351
aS'vertexSrc'
p352
aS'applyCuts'
p353
aS'TrackQuality'
p354
asg11
I00
sg20
I00
sg349
g0
(g274
g2
Ntp355
Rp356
(dp357
g11
I00
sg19
I01
sg20
I00
sg278
S'generalTracks'
p358
sg281
g273
sg280
g273
sbsg69
g268
sg350
g0
(cFWCore.ParameterSet.Types
vdouble
p359
g14
(lp360
F-2.46
aF-2.36
aF-2.26
aF-2.16
aF-2.06
aF-1.96
aF-1.86
aF-1.76
aF-1.66
aF-1.56
aF-1.46
aF-1.36
aF-1.26
aF-1.16
aF-1.06
aF-0.96
aF-0.86
aF-0.76
aF-0.66
aF-0.56
aF-0.46
aF-0.36
aF-0.26
aF-0.16
aF-0.06
aF0.04
aF0.14
aF0.24
aF0.34
aF0.44
aF0.54
aF0.64
aF0.74
aF0.84
aF0.94
aF1.04
aF1.14
aF1.24
aF1.34
aF1.44
aF1.54
aF1.64
aF1.74
aF1.84
aF1.94
aF2.04
aF2.14
aF2.24
aF2.34
aF2.44
atp361
Rp362
(dp363
g11
I00
sg19
I01
sg20
I00
sbsg269
g342
sg40
I84
sg351
g0
(cFWCore.ParameterSet.Types
double
p364
g2
Ntp365
Rp366
(dp367
g11
I00
sg19
I01
sg37
F15.0
sg20
I00
sbsg352
g0
(g274
g2
Ntp368
Rp369
(dp370
g11
I00
sg19
I01
sg20
I00
sg278
S'offlinePrimaryVertices'
p371
sg281
g273
sg280
g273
sbsg353
g0
(g33
g2
Ntp372
Rp373
(dp374
g11
I00
sg19
I01
sg37
I00
sg20
I00
sbsg348
g0
(g359
g14
(lp375
F0.0
aF0.05
aF0.1
aF0.15
aF0.2
aF0.25
aF0.3
aF0.35
aF0.4
aF0.45
aF0.5
aF0.55
aF0.6
aF0.65
aF0.7
aF0.75
aF0.8
aF0.85
aF0.9
aF0.95
aF1.1
aF1.2
aF1.4
aF1.6
aF1.8
aF2.0
aF2.2
aF2.4
aF3.2
aF4.0
aF4.8
aF5.6
aF6.4
aF7.2
aF9.6
aF12.0
aF14.4
aF19.2
aF24.0
aF28.8
aF35.2
aF41.6
aF48.0
aF60.8
aF73.6
aF86.4
aF103.6
aF130.0
atp376
Rp377
(dp378
g11
I00
sg19
I01
sg20
I00
sbsg354
g0
(g164
g2
Ntp379
Rp380
(dp381
g11
I00
sg19
I01
sg37
S'highPurity'
p382
sg20
I00
sbsg46
S'ppRefAnalyzer_v1'
p383
sbsS'_Process__services'
p384
(dp385
g6
g9
sS'TFileService'
p386
g0
(g7
g2
Ntp387
Rp388
(dp389
g38
(lp390
S'fileName'
p391
asg11
I00
sg20
I00
sg40
I10
sg69
g70
sg391
g0
(g164
g2
Ntp392
Rp393
(dp394
g11
I00
sg19
I01
sg37
S'ppRefMinBias1.root'
p395
sg20
I00
sbsg46
g386
sbssS'siStripQualityESProducer'
p396
g0
(cFWCore.ParameterSet.Modules
ESProducer
p397
g2
Ntp398
Rp399
(dp400
g38
(lp401
S'appendToDataLabel'
p402
aS'PrintDebugOutput'
p403
aS'ThresholdForReducedGranularity'
p404
aS'UseEmptyRunInfo'
p405
aS'ReduceGranularity'
p406
aS'ListOfRecordToMerge'
p407
asg11
I00
sg402
g0
(g164
g2
Ntp408
Rp409
(dp410
g11
I00
sg19
I01
sg37
g273
sg20
I00
sbsg20
I01
sg40
I40
sg69
g70
sg404
g0
(g364
g2
Ntp411
Rp412
(dp413
g11
I00
sg19
I01
sg37
F0.3
sg20
I00
sbsg269
g396
sg405
g0
(g33
g2
Ntp414
Rp415
(dp416
g11
I00
sg19
I01
sg37
I00
sg20
I00
sbsg406
g0
(g33
g2
Ntp417
Rp418
(dp419
g11
I00
sg19
I01
sg37
I00
sg20
I00
sbsg407
g0
(cFWCore.ParameterSet.Types
VPSet
p420
g14
(lp421
g0
(g28
g2
Ntp422
Rp423
(dp424
g11
I00
sg19
I01
sg20
I00
sS'record'
p425
g0
(g164
g2
Ntp426
Rp427
(dp428
g11
I00
sg19
I01
sg37
S'SiStripDetVOffRcd'
p429
sg20
I00
sbsS'tag'
p430
g0
(g164
g2
Ntp431
Rp432
(dp433
g11
I00
sg19
I01
sg37
g273
sg20
I00
sbsg38
(lp434
g425
ag430
asbag0
(g28
g2
Ntp435
Rp436
(dp437
g11
I00
sg19
I01
sg20
I00
sg425
g0
(g164
g2
Ntp438
Rp439
(dp440
g11
I00
sg19
I01
sg37
S'SiStripDetCablingRcd'
p441
sg20
I00
sbsg430
g0
(g164
g2
Ntp442
Rp443
(dp444
g11
I00
sg19
I01
sg37
g273
sg20
I00
sbsg38
(lp445
g425
ag430
asbag0
(g28
g2
Ntp446
Rp447
(dp448
g11
I00
sg19
I01
sg20
I00
sg425
g0
(g164
g2
Ntp449
Rp450
(dp451
g11
I00
sg19
I01
sg37
S'RunInfoRcd'
p452
sg20
I00
sbsg430
g0
(g164
g2
Ntp453
Rp454
(dp455
g11
I00
sg19
I01
sg37
g273
sg20
I00
sbsg38
(lp456
g425
ag430
asbag0
(g28
g2
Ntp457
Rp458
(dp459
g11
I00
sg19
I01
sg20
I00
sg425
g0
(g164
g2
Ntp460
Rp461
(dp462
g11
I00
sg19
I01
sg37
S'SiStripBadChannelRcd'
p463
sg20
I00
sbsg430
g0
(g164
g2
Ntp464
Rp465
(dp466
g11
I00
sg19
I01
sg37
g273
sg20
I00
sbsg38
(lp467
g425
ag430
asbag0
(g28
g2
Ntp468
Rp469
(dp470
g11
I00
sg19
I01
sg20
I00
sg425
g0
(g164
g2
Ntp471
Rp472
(dp473
g11
I00
sg19
I01
sg37
S'SiStripBadFiberRcd'
p474
sg20
I00
sbsg430
g0
(g164
g2
Ntp475
Rp476
(dp477
g11
I00
sg19
I01
sg37
g273
sg20
I00
sbsg38
(lp478
g425
ag430
asbag0
(g28
g2
Ntp479
Rp480
(dp481
g11
I00
sg19
I01
sg20
I00
sg425
g0
(g164
g2
Ntp482
Rp483
(dp484
g11
I00
sg19
I01
sg37
S'SiStripBadModuleRcd'
p485
sg20
I00
sbsg430
g0
(g164
g2
Ntp486
Rp487
(dp488
g11
I00
sg19
I01
sg37
g273
sg20
I00
sbsg38
(lp489
g425
ag430
asbag0
(g28
g2
Ntp490
Rp491
(dp492
g11
I00
sg19
I01
sg20
I00
sg425
g0
(g164
g2
Ntp493
Rp494
(dp495
g11
I00
sg19
I01
sg37
S'SiStripBadStripRcd'
p496
sg20
I00
sbsg430
g0
(g164
g2
Ntp497
Rp498
(dp499
g11
I00
sg19
I01
sg37
g273
sg20
I00
sbsg38
(lp500
g425
ag430
asbatp501
Rp502
(dp503
g11
I00
sg19
I01
sg20
I00
sg21
I1
sbsg46
S'SiStripQualityESProducer'
p504
sg403
g0
(g33
g2
Ntp505
Rp506
(dp507
g11
I00
sg19
I01
sg37
I00
sg20
I00
sbsbsS'_Process__source'
p508
g0
(cFWCore.ParameterSet.Modules
Source
p509
g2
Ntp510
Rp511
(dp512
g38
(lp513
S'fileNames'
p514
asg11
I00
sg20
I00
sg40
I175
sg69
g70
sg514
g0
(g13
g14
(lp515
S'/store/data/Run2015E/MinimumBias1/AOD/PromptReco-v1/000/262/271/00000/004E78B2-1396-E511-9F94-02163E01439C.root'
p516
atp517
Rp518
(dp519
g11
I00
sg19
I00
sg20
I00
sg21
I1
sbsg46
S'PoolSource'
p520
sbsS'StripCPEfromTrackAngleESProducer'
p521
g0
(g397
g2
Ntp522
Rp523
(dp524
g38
(lp525
S'ComponentType'
p526
aS'ComponentName'
p527
aS'parameters'
p528
asg11
I00
sg20
I01
sg528
g0
(g28
g2
Ntp529
Rp530
(dp531
g11
I00
sg19
I01
sS'maxChgOneMIP'
p532
g0
(g364
g2
Ntp533
Rp534
(dp535
g11
I00
sg19
I01
sg37
F6000.0
sg20
I00
sbsS'mLC_P2'
p536
g0
(g364
g2
Ntp537
Rp538
(dp539
g11
I00
sg19
I01
sg37
F0.3
sg20
I00
sbsS'mLC_P1'
p540
g0
(g364
g2
Ntp541
Rp542
(dp543
g11
I00
sg19
I01
sg37
F0.618
sg20
I00
sbsS'mLC_P0'
p544
g0
(g364
g2
Ntp545
Rp546
(dp547
g11
I00
sg19
I01
sg37
F-0.326
sg20
I00
sbsS'useLegacyError'
p548
g0
(g33
g2
Ntp549
Rp550
(dp551
g11
I00
sg19
I01
sg37
I00
sg20
I00
sbsS'mTIB_P1'
p552
g0
(g364
g2
Ntp553
Rp554
(dp555
g11
I00
sg19
I01
sg37
F0.202
sg20
I00
sbsS'mTEC_P1'
p556
g0
(g364
g2
Ntp557
Rp558
(dp559
g11
I00
sg19
I01
sg37
F0.471
sg20
I00
sbsS'mTEC_P0'
p560
g0
(g364
g2
Ntp561
Rp562
(dp563
g11
I00
sg19
I01
sg37
F-1.885
sg20
I00
sbsS'mTOB_P0'
p564
g0
(g364
g2
Ntp565
Rp566
(dp567
g11
I00
sg19
I01
sg37
F-1.026
sg20
I00
sbsS'mTOB_P1'
p568
g0
(g364
g2
Ntp569
Rp570
(dp571
g11
I00
sg19
I01
sg37
F0.253
sg20
I00
sbsS'mTIB_P0'
p572
g0
(g364
g2
Ntp573
Rp574
(dp575
g11
I00
sg19
I01
sg37
F-0.742
sg20
I00
sbsg38
(lp576
g532
ag536
ag540
ag544
ag548
ag556
ag560
ag564
ag568
ag572
ag552
aS'mTID_P0'
p577
aS'mTID_P1'
p578
asg577
g0
(g364
g2
Ntp579
Rp580
(dp581
g11
I00
sg19
I01
sg37
F-1.427
sg20
I00
sbsg578
g0
(g364
g2
Ntp582
Rp583
(dp584
g11
I00
sg19
I01
sg37
F0.433
sg20
I00
sbsg20
I00
sbsg40
I4
sg527
g0
(g164
g2
Ntp585
Rp586
(dp587
g11
I00
sg19
I01
sg37
S'StripCPEfromTrackAngle'
p588
sg20
I00
sbsg526
g0
(g164
g2
Ntp589
Rp590
(dp591
g11
I00
sg19
I01
sg37
g588
sg20
I00
sbsg69
S'/cvmfs/cms.cern.ch/slc6_amd64_gcc491/cms/cmssw/CMSSW_7_5_8/python/RecoLocalTracker/SiStripRecHitConverter/StripCPEfromTrackAngle_cfi.py'
p592
sg269
g521
sg46
S'StripCPEESProducer'
p593
sbsS'_Process__aliases'
p594
(dp595
sS'hltHighLevel'
p596
g0
(g253
g2
Ntp597
Rp598
(dp599
g38
(lp600
g258
ag262
ag260
ag261
ag259
asg11
I00
sg259
g0
(g33
g2
Ntp601
Rp602
(dp603
g11
I00
sg19
I01
sg37
I01
sg20
I00
sbsg260
g0
(g13
g14
(lp604
tp605
Rp606
(dp607
g11
I00
sg19
I01
sg20
I00
sg21
I1
sbsg20
I00
sg40
I8
sg69
S'/cvmfs/cms.cern.ch/slc6_amd64_gcc491/cms/cmssw/CMSSW_7_5_8/cfipython/slc6_amd64_gcc491/HLTrigger/HLTfilters/hltHighLevel_cfi.py'
p608
sg269
g596
sg258
g0
(g164
g2
Ntp609
Rp610
(dp611
g11
I00
sg19
I01
sg37
g273
sg20
I00
sbsg261
g0
(g33
g2
Ntp612
Rp613
(dp614
g11
I00
sg19
I01
sg37
I01
sg20
I00
sbsg46
g286
sg262
g0
(g274
g2
Ntp615
Rp616
(dp617
g11
I00
sg19
I01
sg20
I00
sg278
g279
sg281
g282
sg280
g273
sbsbsS'stripCPEESProducer'
p618
g0
(g397
g2
Ntp619
Rp620
(dp621
g38
(lp622
g526
ag527
ag528
asg11
I00
sg20
I00
sg528
g0
(g28
g2
Ntp623
Rp624
(dp625
g11
I00
sg19
I01
sg20
I00
sg38
(lp626
sbsg40
I40
sg527
g0
(g164
g2
Ntp627
Rp628
(dp629
g11
I00
sg19
I01
sg37
S'stripCPE'
p630
sg20
I00
sbsg526
g0
(g164
g2
Ntp631
Rp632
(dp633
g11
I00
sg19
I01
sg37
S'SimpleStripCPE'
p634
sg20
I00
sbsg69
g70
sg269
g618
sg46
g593
sbsS'EcalLaserCorrectionService'
p635
g0
(g397
g2
Ntp636
Rp637
(dp638
g38
(lp639
sg11
I00
sg20
I00
sg40
I40
sg69
g70
sg269
g635
sg46
g635
sbsS'_Process__psets'
p640
(dp641
S'maxEvents'
p642
g0
(g28
g2
Ntp643
Rp644
(dp645
g11
I00
sg19
I00
sg20
I00
sg38
(lp646
S'input'
p647
asg269
g642
sg647
g0
(g103
g2
Ntp648
Rp649
(dp650
g11
I00
sg19
I00
sg37
I1000
sg20
I00
sbsbsS'HcalReLabel'
p651
g0
(g28
g2
Ntp652
Rp653
(dp654
g11
I00
sg19
I01
sg20
I00
sS'RelabelRules'
p655
g0
(g28
g2
Ntp656
Rp657
(dp658
g11
I00
sg19
I00
sg20
I00
sS'Eta16'
p659
g0
(cFWCore.ParameterSet.Types
vint32
p660
g14
(lp661
I1
aI1
aI2
aI2
aI2
aI2
aI2
aI2
aI2
aI3
aI3
aI3
aI3
aI3
aI3
aI3
aI3
aI3
aI3
atp662
Rp663
(dp664
g11
I00
sg19
I00
sg20
I00
sbsS'Eta17'
p665
g0
(g660
g14
(lp666
I1
aI1
aI2
aI2
aI3
aI3
aI3
aI4
aI4
aI4
aI4
aI4
aI5
aI5
aI5
aI5
aI5
aI5
aI5
atp667
Rp668
(dp669
g11
I00
sg19
I00
sg20
I00
sbsS'CorrectPhi'
p670
g0
(g33
g2
Ntp671
Rp672
(dp673
g11
I00
sg19
I00
sg37
I00
sg20
I00
sbsg38
(lp674
g659
ag665
aS'Eta1'
p675
ag670
asg675
g0
(g660
g14
(lp676
I1
aI2
aI2
aI2
aI3
aI3
aI3
aI3
aI3
aI3
aI3
aI3
aI3
aI3
aI3
aI3
aI3
aI3
aI3
atp677
Rp678
(dp679
g11
I00
sg19
I00
sg20
I00
sbsbsg38
(lp680
g655
aS'RelabelHits'
p681
asg269
g651
sg681
g0
(g33
g2
Ntp682
Rp683
(dp684
g11
I00
sg19
I00
sg37
I00
sg20
I00
sbsbsS'options'
p685
g0
(g28
g2
Ntp686
Rp687
(dp688
g11
I00
sg19
I00
sg20
I00
sS'SkipEvent'
p689
g0
(g13
g14
(lp690
S'ProductNotFound'
p691
atp692
Rp693
(dp694
g11
I00
sg19
I00
sg20
I00
sg21
I1
sbsg38
(lp695
g689
asg269
g685
sbsg292
g294
ssS'hcal_db_producer'
p696
g0
(g397
g2
Ntp697
Rp698
(dp699
g38
(lp700
S'file'
p701
aS'dump'
p702
asg11
I00
sg20
I00
sg702
g0
(g13
g14
(lp703
g273
atp704
Rp705
(dp706
g11
I00
sg19
I00
sg20
I00
sg21
I1
sbsg40
I40
sg69
g70
sg701
g0
(g164
g2
Ntp707
Rp708
(dp709
g11
I00
sg19
I00
sg37
g273
sg20
I00
sbsg269
g696
sg46
S'HcalDbProducer'
p710
sbsg386
g388
sS'_Process__essources'
p711
(dp712
S'es_hardcode'
p713
g0
(cFWCore.ParameterSet.Modules
ESSource
p714
g2
Ntp715
Rp716
(dp717
g38
(lp718
g651
aS'HERecalibration'
p719
aS'toGet'
p720
aS'GainWidthsForTrigPrims'
p721
aS'HEreCalibCutoff'
p722
aS'HFRecalibration'
p723
aS'iLumi'
p724
aS'hcalTopologyConstants'
p725
asg11
I00
sg651
g653
sg20
I01
sg40
I19
sg719
g0
(g33
g2
Ntp726
Rp727
(dp728
g11
I00
sg19
I01
sg37
I00
sg20
I00
sbsg725
g0
(g28
g2
Ntp729
Rp730
(dp731
g11
I00
sg19
I01
sg20
I00
sS'maxDepthHE'
p732
g0
(g103
g2
Ntp733
Rp734
(dp735
g11
I00
sg19
I01
sg37
I3
sg20
I00
sbsS'maxDepthHB'
p736
g0
(g103
g2
Ntp737
Rp738
(dp739
g11
I00
sg19
I01
sg37
I2
sg20
I00
sbsg38
(lp740
g732
ag736
aS'mode'
p741
asg741
g0
(g164
g2
Ntp742
Rp743
(dp744
g11
I00
sg19
I01
sg37
S'HcalTopologyMode::LHC'
p745
sg20
I00
sbsbsg720
g0
(g13
g14
(lp746
S'GainWidths'
p747
atp748
Rp749
(dp750
g11
I00
sg19
I00
sg20
I00
sg21
I1
sbsg721
g0
(g33
g2
Ntp751
Rp752
(dp753
g11
I00
sg19
I01
sg37
I00
sg20
I00
sbsg722
g0
(g364
g2
Ntp754
Rp755
(dp756
g11
I00
sg19
I01
sg37
F20.0
sg20
I00
sbsg723
g0
(g33
g2
Ntp757
Rp758
(dp759
g11
I00
sg19
I01
sg37
I00
sg20
I00
sbsg69
S'/cvmfs/cms.cern.ch/slc6_amd64_gcc491/cms/cmssw/CMSSW_7_5_8/python/CalibCalorimetry/HcalPlugins/Hcal_Conditions_forGlobalTag_cff.py'
p760
sg269
g713
sg724
g0
(g364
g2
Ntp761
Rp762
(dp763
g11
I00
sg19
I01
sg37
F-1.0
sg20
I00
sbsg46
S'HcalHardcodeCalibrations'
p764
sbsS'GlobalTag'
p765
g0
(g714
g2
Ntp766
Rp767
(dp768
g38
(lp769
g296
ag720
aS'connect'
p770
aS'globaltag'
p771
asg11
I00
sg20
I01
sg771
g0
(g164
g2
Ntp772
Rp773
(dp774
g11
I00
sg19
I01
sg37
S'75X_dataRun2_Prompt_ppAt5TeV_v0'
p775
sg20
I00
sbsg40
I11
sg69
S'/cvmfs/cms.cern.ch/slc6_amd64_gcc491/cms/cmssw/CMSSW_7_5_8/python/Configuration/StandardSequences/FrontierConditions_GlobalTag_cfi.py'
p776
sg720
g0
(g420
g14
(lp777
tp778
Rp779
(dp780
g11
I00
sg19
I01
sg20
I00
sg21
I1
sbsg296
g0
(g28
g2
Ntp781
Rp782
(dp783
g11
I00
sg19
I01
sg304
g0
(g164
g2
Ntp784
Rp785
(dp786
g11
I00
sg19
I00
sg37
g273
sg20
I00
sbsg300
g0
(g103
g2
Ntp787
Rp788
(dp789
g11
I00
sg19
I00
sg37
I10
sg20
I00
sbsg20
I00
sg308
g0
(g103
g2
Ntp790
Rp791
(dp792
g11
I00
sg19
I00
sg37
I10
sg20
I00
sbsg312
g0
(g103
g2
Ntp793
Rp794
(dp795
g11
I00
sg19
I00
sg37
I0
sg20
I00
sbsg316
g0
(g33
g2
Ntp796
Rp797
(dp798
g11
I00
sg19
I00
sg37
I00
sg20
I00
sbsg320
g0
(g33
g2
Ntp799
Rp800
(dp801
g11
I00
sg19
I00
sg37
I01
sg20
I00
sbsg324
g0
(g33
g2
Ntp802
Rp803
(dp804
g11
I00
sg19
I00
sg37
I00
sg20
I00
sbsg38
(lp805
g304
ag324
ag308
ag312
ag316
ag320
ag329
ag330
ag331
ag300
asg330
g0
(g103
g2
Ntp806
Rp807
(dp808
g11
I00
sg19
I00
sg37
I60
sg20
I00
sbsg331
g0
(g103
g2
Ntp809
Rp810
(dp811
g11
I00
sg19
I00
sg37
I0
sg20
I00
sbsg329
g0
(g103
g2
Ntp812
Rp813
(dp814
g11
I00
sg19
I00
sg37
I60
sg20
I00
sbsbsg770
g0
(g164
g2
Ntp815
Rp816
(dp817
g11
I00
sg19
I01
sg37
S'frontier://FrontierProd/CMS_CONDITIONS'
p818
sg20
I00
sbsg269
g765
sg46
S'PoolDBESSource'
p819
sbssg520
g511
sg642
g644
sS'source'
p820
g511
sS'CastorDbProducer'
p821
g0
(g397
g2
Ntp822
Rp823
(dp824
g38
(lp825
sg11
I00
sg20
I00
sg40
I40
sg69
g70
sg269
g821
sg46
g821
sbsS'_Process__vpsets'
p826
(dp827
sS'_Process__name'
p828
S'Demo'
p829
sg713
g716
sS'es_prefer_hcalHardcode'
p830
g0
(cFWCore.ParameterSet.Modules
ESPrefer
p831
g2
Ntp832
Rp833
(dp834
g38
(lp835
sg11
I00
sg20
I00
sS'_targetLabel'
p836
g713
sg40
I73
sg69
g70
sg269
g830
sg46
g764
sbsS'siStripBackPlaneCorrectionDepESProducer'
p837
g0
(g397
g2
Ntp838
Rp839
(dp840
g38
(lp841
S'LatencyRecord'
p842
aS'BackPlaneCorrectionDeconvMode'
p843
aS'BackPlaneCorrectionPeakMode'
p844
asg11
I00
sg20
I00
sg40
I40
sg69
g70
sg842
g0
(g28
g2
Ntp845
Rp846
(dp847
g11
I00
sg19
I01
sg20
I00
sS'label'
p848
g0
(g164
g2
Ntp849
Rp850
(dp851
g11
I00
sg19
I00
sg37
g273
sg20
I00
sbsg425
g0
(g164
g2
Ntp852
Rp853
(dp854
g11
I00
sg19
I01
sg37
S'SiStripLatencyRcd'
p855
sg20
I00
sbsg38
(lp856
g425
ag848
asbsg844
g0
(g28
g2
Ntp857
Rp858
(dp859
g11
I00
sg19
I01
sg20
I00
sg848
g0
(g164
g2
Ntp860
Rp861
(dp862
g11
I00
sg19
I00
sg37
S'peak'
p863
sg20
I00
sbsg425
g0
(g164
g2
Ntp864
Rp865
(dp866
g11
I00
sg19
I01
sg37
S'SiStripBackPlaneCorrectionRcd'
p867
sg20
I00
sbsg38
(lp868
g425
ag848
asbsg269
g837
sg843
g0
(g28
g2
Ntp869
Rp870
(dp871
g11
I00
sg19
I01
sg20
I00
sg848
g0
(g164
g2
Ntp872
Rp873
(dp874
g11
I00
sg19
I00
sg37
S'deconvolution'
p875
sg20
I00
sbsg425
g0
(g164
g2
Ntp876
Rp877
(dp878
g11
I00
sg19
I01
sg37
g867
sg20
I00
sbsg38
(lp879
g425
ag848
asbsg46
S'SiStripBackPlaneCorrectionDepESProducer'
p880
sbsg651
g653
sS'_cloneToObjectDict'
p881
(dp882
I41474064
g294
sI42672720
g0
(cFWCore.ParameterSet.SequenceTypes
Path
p883
g2
Ntp884
Rp885
(dp886
g11
I00
sS'_seq'
p887
g0
(cFWCore.ParameterSet.SequenceTypes
_SequenceCollection
p888
g2
Ntp889
Rp890
(dp891
S'_collection'
p892
(lp893
g345
asbsg20
I00
sg269
S'p'
p894
sbsI42563600
g0
(g397
g2
Ntp895
Rp896
(dp897
g38
(lp898
sg11
I00
sg20
I00
sg40
I40
sg69
g70
sg269
S'sistripconn'
p899
sg46
S'SiStripConnectivity'
p900
sbsI41474192
g767
sI42562128
g523
sI42564112
g823
sI42564240
g0
(g397
g2
Ntp901
Rp902
(dp903
g38
(lp904
g407
asg11
I00
sg20
I01
sg40
I40
sg69
g70
sg407
g0
(g420
g14
(lp905
g0
(g28
g2
Ntp906
Rp907
(dp908
g11
I00
sg19
I01
sg20
I00
sg425
g0
(g164
g2
Ntp909
Rp910
(dp911
g11
I00
sg19
I01
sg37
S'SiPixelQualityFromDbRcd'
p912
sg20
I00
sbsg430
g0
(g164
g2
Ntp913
Rp914
(dp915
g11
I00
sg19
I01
sg37
g273
sg20
I00
sbsg38
(lp916
g425
ag430
asbag0
(g28
g2
Ntp917
Rp918
(dp919
g11
I00
sg19
I01
sg20
I00
sg425
g0
(g164
g2
Ntp920
Rp921
(dp922
g11
I00
sg19
I01
sg37
S'SiPixelDetVOffRcd'
p923
sg20
I00
sbsg430
g0
(g164
g2
Ntp924
Rp925
(dp926
g11
I00
sg19
I01
sg37
g273
sg20
I00
sbsg38
(lp927
g425
ag430
asbatp928
Rp929
(dp930
g11
I00
sg19
I01
sg20
I00
sg21
I1
sbsg269
S'siPixelQualityESProducer'
p931
sg46
S'SiPixelQualityESProducer'
p932
sbsI41475088
g637
sI41475408
g698
sI42643280
g644
sI42552720
g0
(g397
g2
Ntp933
Rp934
(dp935
g38
(lp936
g842
aS'LorentzAngleDeconvMode'
p937
aS'LorentzAnglePeakMode'
p938
asg11
I00
sg20
I00
sg40
I40
sg69
g70
sg842
g0
(g28
g2
Ntp939
Rp940
(dp941
g11
I00
sg19
I01
sg20
I00
sg848
g0
(g164
g2
Ntp942
Rp943
(dp944
g11
I00
sg19
I00
sg37
g273
sg20
I00
sbsg425
g0
(g164
g2
Ntp945
Rp946
(dp947
g11
I00
sg19
I01
sg37
g855
sg20
I00
sbsg38
(lp948
g425
ag848
asbsg269
S'siStripLorentzAngleDepESProducer'
p949
sg938
g0
(g28
g2
Ntp950
Rp951
(dp952
g11
I00
sg19
I01
sg20
I00
sg848
g0
(g164
g2
Ntp953
Rp954
(dp955
g11
I00
sg19
I00
sg37
g863
sg20
I00
sbsg425
g0
(g164
g2
Ntp956
Rp957
(dp958
g11
I00
sg19
I01
sg37
S'SiStripLorentzAngleRcd'
p959
sg20
I00
sbsg38
(lp960
g425
ag848
asbsg46
S'SiStripLorentzAngleDepESProducer'
p961
sg937
g0
(g28
g2
Ntp962
Rp963
(dp964
g11
I00
sg19
I01
sg20
I00
sg848
g0
(g164
g2
Ntp965
Rp966
(dp967
g11
I00
sg19
I00
sg37
g875
sg20
I00
sbsg425
g0
(g164
g2
Ntp968
Rp969
(dp970
g11
I00
sg19
I01
sg37
g959
sg20
I00
sbsg38
(lp971
g425
ag848
asbsbsI42577360
g598
sI42577552
g255
sI41475792
g653
sI42565392
g399
sI42563472
g0
(g397
g2
Ntp972
Rp973
(dp974
g38
(lp975
S'PreFilter'
p976
ag527
aS'NSigmaInside'
p977
asg11
I00
sg20
I00
sg69
g70
sg527
g0
(g164
g2
Ntp978
Rp979
(dp980
g11
I00
sg19
I01
sg37
S'StandardMatcher'
p981
sg20
I00
sbsg976
g0
(g33
g2
Ntp982
Rp983
(dp984
g11
I00
sg19
I01
sg37
I00
sg20
I00
sbsg40
I40
sg977
g0
(g364
g2
Ntp985
Rp986
(dp987
g11
I00
sg19
I01
sg37
F3.0
sg20
I00
sbsg269
S'SiStripRecHitMatcherESProducer'
p988
sg46
g988
sbsI42561680
g839
sI42672336
g687
sI42549584
g716
sI42549648
g833
sI42562000
g620
sI42672656
g345
sI42551824
g0
(g397
g2
Ntp989
Rp990
(dp991
g38
(lp992
S'printDebug'
p993
ag402
aS'APVGain'
p994
aS'AutomaticNormalization'
p995
asg11
I00
sg402
g0
(g164
g2
Ntp996
Rp997
(dp998
g11
I00
sg19
I01
sg37
g273
sg20
I00
sbsg20
I00
sg995
g0
(g33
g2
Ntp999
Rp1000
(dp1001
g11
I00
sg19
I01
sg37
I00
sg20
I00
sbsg40
I40
sg993
g0
(g33
g2
Ntp1002
Rp1003
(dp1004
g11
I00
sg19
I00
sg37
I00
sg20
I00
sbsg69
g70
sg994
g0
(g420
g14
(lp1005
g0
(g28
g2
Ntp1006
Rp1007
(dp1008
g11
I00
sg19
I01
sg20
I00
sS'Label'
p1009
g0
(g164
g2
Ntp1010
Rp1011
(dp1012
g11
I00
sg19
I00
sg37
g273
sg20
I00
sbsS'Record'
p1013
g0
(g164
g2
Ntp1014
Rp1015
(dp1016
g11
I00
sg19
I01
sg37
S'SiStripApvGainRcd'
p1017
sg20
I00
sbsS'NormalizationFactor'
p1018
g0
(g364
g2
Ntp1019
Rp1020
(dp1021
g11
I00
sg19
I00
sg37
F1.0
sg20
I00
sbsg38
(lp1022
g1013
ag1018
ag1009
asbag0
(g28
g2
Ntp1023
Rp1024
(dp1025
g11
I00
sg19
I01
sg20
I00
sg1009
g0
(g164
g2
Ntp1026
Rp1027
(dp1028
g11
I00
sg19
I00
sg37
g273
sg20
I00
sbsg1013
g0
(g164
g2
Ntp1029
Rp1030
(dp1031
g11
I00
sg19
I01
sg37
S'SiStripApvGain2Rcd'
p1032
sg20
I00
sbsg1018
g0
(g364
g2
Ntp1033
Rp1034
(dp1035
g11
I00
sg19
I00
sg37
F1.0
sg20
I00
sbsg38
(lp1036
g1013
ag1018
ag1009
asbatp1037
Rp1038
(dp1039
g11
I00
sg19
I01
sg20
I00
sg21
I1
sbsg269
S'siStripGainESProducer'
p1040
sg46
S'SiStripGainESProducer'
p1041
sbssg1040
g990
sg899
g896
sS'_Process__esprefers'
p1042
(dp1043
g830
g833
ssg988
g973
sS'_Process__schedule'
p1044
NsS'_Process__partialschedules'
p1045
(dp1046
sS'_Process__outputmodules'
p1047
(dp1048
sS'_Process__analyzers'
p1049
(dp1050
g342
g345
ssS'_Process__InExtendCall'
p1051
I00
sg949
g934
sS'_Process__modifiers'
p1052
(tsS'_Process__producers'
p1053
(dp1054
sg931
g902
sg765
g767
sS'_Process__filters'
p1055
(dp1056
g252
g255
sg596
g598
ssS'_Process__looper'
p1057
NsS'_Process__endpaths'
p1058
g0
(cFWCore.ParameterSet.DictTypes
SortedKeysDict
p1059
c__builtin__
dict
p1060
(dp1061
tp1062
Rp1063
(dp1064
S'list'
p1065
(lp1066
sbsS'_Process__esproducers'
p1067
(dp1068
g949
g934
sg618
g620
sg988
g973
sg931
g902
sg696
g698
sg1040
g990
sg899
g896
sg521
g523
sg821
g823
sg635
g637
sg837
g839
sg396
g399
ssg894
g885
sS'_Process__paths'
p1069
g0
(g1059
g1060
(dp1070
g894
g885
stp1071
Rp1072
(dp1073
g1065
(lp1074
g894
asbsS'_Process__subProcess'
p1075
Nsg685
g687
sS'_Process__isStrict'
p1076
I00
sb.