(dp1
S'OriginalConfig'
p2
ccopy_reg
_reconstructor
p3
(cWMCore.Configuration
Configuration
p4
c__builtin__
object
p5
NtRp6
(dp7
S'Site'
p8
g3
(cWMCore.Configuration
ConfigSection
p9
g5
NtRp10
(dp11
S'_internal_documentation'
p12
S''
sS'_internal_settings'
p13
c__builtin__
set
p14
((lp15
S'storageSite'
p16
atRp17
sS'_internal_name'
p18
g8
sS'_internal_docstrings'
p19
(dp20
sS'_internal_children'
p21
g14
((ltRp22
sg16
S'T2_US_Vanderbilt'
p23
sS'_internal_parent_ref'
p24
NsbsS'_internal_sections'
p25
(lp26
S'General'
p27
aS'JobType'
p28
aS'Data'
p29
ag8
aS'User'
p30
aS'Debug'
p31
asg27
g3
(g9
g5
NtRp32
(dp33
S'transferLogs'
p34
I00
sg12
S''
sg13
g14
((lp35
g34
aS'transferOutputs'
p36
aS'workArea'
p37
aS'requestName'
p38
atRp39
sg18
g27
sg19
(dp40
sg36
I01
sg21
g14
((ltRp41
sg38
S'ppRefAnalyzer20160122085524'
p42
sg24
Nsg37
S'ppRef_crab_projects'
p43
sbsS'_internal_webapps'
p44
(lp45
sg30
g3
(g9
g5
NtRp46
(dp47
g12
S''
sg13
g14
((ltRp48
sg18
g30
sg19
(dp49
sg21
g14
((ltRp50
sg24
NsbsS'_internal_components'
p51
(lp52
sg31
g3
(g9
g5
NtRp53
(dp54
g12
S''
sg13
g14
((ltRp55
sg18
g31
sg19
(dp56
sg21
g14
((ltRp57
sg24
Nsbsg29
g3
(g9
g5
NtRp58
(dp59
S'inputDataset'
p60
S'/MinimumBias10/Run2015E-PromptReco-v1/AOD'
p61
sS'outputDatasetTag'
p62
S'ppRef_Spectra'
p63
sS'publication'
p64
I01
sS'splitting'
p65
S'LumiBased'
p66
sS'unitsPerJob'
p67
I20
sg12
S''
sg13
g14
((lp68
g60
ag62
ag64
ag67
ag65
aS'inputDBS'
p69
aS'lumiMask'
p70
aS'outLFNDirBase'
p71
aS'runRange'
p72
atRp73
sg18
g29
sg69
S'global'
p74
sg19
(dp75
sg21
g14
((ltRp76
sg71
S'/store/user/rjanjam/'
p77
sg24
Nsg70
S'https://cms-service-dqm.web.cern.ch/cms-service-dqm/CAF/certification/Collisions15/5TeV/Cert_262168-262172_5TeV_PromptReco_Collisions15_25ns_LOWPU_JSON.txt'
p78
sg72
S'262168-262172'
p79
sbsg28
g3
(g9
g5
NtRp80
(dp81
g12
S''
sg13
g14
((lp82
S'psetName'
p83
aS'pluginName'
p84
atRp85
sg18
g28
sg19
(dp86
sg84
S'Analysis'
p87
sg21
g14
((ltRp88
sg83
S'ppRef_v3_cfg.py'
p89
sg24
NsbsbsS'voGroup'
p90
S''
sS'Server'
p91
S'cmsweb.cern.ch'
p92
sS'instance'
p93
S'prod'
p94
sS'RequestName'
p95
S'160122_145539:rjanjam_crab_ppRefAnalyzer20160122085524'
p96
sS'voRole'
p97
S'NULL'
p98
sS'Port'
p99
S''
s.